target datalayout = "e-m:e-p270:32:32-p271:32:32-p272:64:64-i64:64-i128:128-f80:128-n8:16:32:64-S128"
target triple = "x86_64-pc-linux-gnu"

%"class.std::__cxx11::basic_string" = type { %"struct.std::__cxx11::basic_string<char>::_Alloc_hider", i64, %union.anon }
%"struct.std::__cxx11::basic_string<char>::_Alloc_hider" = type { ptr }
%union.anon = type { i64, [8 x i8] }
%"class.std::allocator" = type { i8 }
%"class.std::shared_ptr" = type { %"class.std::__shared_ptr" }
%"class.std::__shared_ptr" = type { ptr, %"class.std::__shared_count" }
%"class.std::__shared_count" = type { ptr }
%"class.open_spiel::spades::SpadesState" = type <{ %"class.open_spiel::State.base", i8, [3 x i8], i32, i32, i32, i32, %"struct.std::array", i8, [3 x i8], %"struct.std::array.9", i32, i32, i32, %"struct.std::array.9", %"struct.std::array.10", [4 x i8], %"class.std::vector.11", %"struct.std::array.16", %"struct.std::array.18", i8, [7 x i8] }>
%"class.open_spiel::State.base" = type <{ ptr, %"class.std::shared_ptr", i32, i32, %"class.std::vector", i32 }>
%"class.std::vector" = type { %"struct.std::_Vector_base" }
%"struct.std::_Vector_base" = type { %"struct.std::_Vector_base<open_spiel::State::PlayerAction, std::allocator<open_spiel::State::PlayerAction>>::_Vector_impl" }
%"struct.std::_Vector_base<open_spiel::State::PlayerAction, std::allocator<open_spiel::State::PlayerAction>>::_Vector_impl" = type { %"struct.std::_Vector_base<open_spiel::State::PlayerAction, std::allocator<open_spiel::State::PlayerAction>>::_Vector_impl_data" }
%"struct.std::_Vector_base<open_spiel::State::PlayerAction, std::allocator<open_spiel::State::PlayerAction>>::_Vector_impl_data" = type { ptr, ptr, ptr }
%"struct.std::array" = type { [2 x i32] }
%"struct.std::array.9" = type { [4 x i32] }
%"struct.std::array.10" = type { [13 x %"class.open_spiel::spades::Trick"] }
%"class.open_spiel::spades::Trick" = type { i32, i32, i32, i32, i32 }
%"class.std::vector.11" = type { %"struct.std::_Vector_base.12" }
%"struct.std::_Vector_base.12" = type { %"struct.std::_Vector_base<double, std::allocator<double>>::_Vector_impl" }
%"struct.std::_Vector_base<double, std::allocator<double>>::_Vector_impl" = type { %"struct.std::_Vector_base<double, std::allocator<double>>::_Vector_impl_data" }
%"struct.std::_Vector_base<double, std::allocator<double>>::_Vector_impl_data" = type { ptr, ptr, ptr }
%"struct.std::array.16" = type { [52 x %"class.absl::debian2::optional"] }
%"class.absl::debian2::optional" = type { %"class.absl::debian2::optional_internal::optional_data" }
%"class.absl::debian2::optional_internal::optional_data" = type { %"class.absl::debian2::optional_internal::optional_data_base" }
%"class.absl::debian2::optional_internal::optional_data_base" = type { %"class.absl::debian2::optional_internal::optional_data_dtor_base" }
%"class.absl::debian2::optional_internal::optional_data_dtor_base" = type { i8, %union.anon.17 }
%union.anon.17 = type { i32 }
%"struct.std::array.18" = type { [56 x i8] }
%"class.open_spiel::State" = type <{ ptr, %"class.std::shared_ptr", i32, i32, %"class.std::vector", i32, [4 x i8] }>

@.str.51 = private unnamed_addr constant [30 x i8] c"Cannot act in terminal states\00", align 1

; Function Attrs: mustprogress nounwind uwtable
define linkonce_odr void @_ZN4absl7debian217optional_internal18optional_data_baseIiE9constructIJmEEEvDpOT_(ptr noundef nonnull align 4 dereferenceable(8) %0, ptr noundef nonnull align 8 dereferenceable(8) %1) #5 comdat align 2 {
  %3 = alloca ptr, align 8
  %4 = alloca ptr, align 8
  store ptr %0, ptr %3, align 8
  store ptr %1, ptr %4, align 8
  %5 = load ptr, ptr %3, align 8
  %6 = getelementptr inbounds nuw %"class.absl::debian2::optional_internal::optional_data_dtor_base", ptr %5, i32 0, i32 1
  %7 = load ptr, ptr %4, align 8
  %8 = load i64, ptr %7, align 8
  %9 = trunc i64 %8 to i32
  store i32 %9, ptr %6, align 4
  %10 = getelementptr inbounds nuw %"class.absl::debian2::optional_internal::optional_data_dtor_base", ptr %5, i32 0, i32 0
  store i8 1, ptr %10, align 4
  ret void
}

; Function Attrs: mustprogress uwtable
define linkonce_odr void @_ZN4absl7debian217optional_internal18optional_data_baseIiE6assignImEEvOT_(ptr noundef nonnull align 4 dereferenceable(8) %0, ptr noundef nonnull align 8 dereferenceable(8) %1) #4 comdat align 2 {
  %3 = alloca ptr, align 8
  %4 = alloca ptr, align 8
  store ptr %0, ptr %3, align 8
  store ptr %1, ptr %4, align 8
  %5 = load ptr, ptr %3, align 8
  %6 = getelementptr inbounds nuw %"class.absl::debian2::optional_internal::optional_data_dtor_base", ptr %5, i32 0, i32 0
  %7 = load i8, ptr %6, align 4
  %8 = trunc i8 %7 to i1
  br i1 %8, label %9, label %14

9:                                                ; preds = %2
  %10 = load ptr, ptr %4, align 8
  %11 = load i64, ptr %10, align 8
  %12 = trunc i64 %11 to i32
  %13 = getelementptr inbounds nuw %"class.absl::debian2::optional_internal::optional_data_dtor_base", ptr %5, i32 0, i32 1
  store i32 %12, ptr %13, align 4
  br label %16

14:                                               ; preds = %2
  %15 = load ptr, ptr %4, align 8
  call void @_ZN4absl7debian217optional_internal18optional_data_baseIiE9constructIJmEEEvDpOT_(ptr noundef nonnull align 4 dereferenceable(8) %5, ptr noundef nonnull align 8 dereferenceable(8) %15)
  br label %16

16:                                               ; preds = %14, %9
  ret void
}

; Function Attrs: mustprogress nounwind uwtable
define linkonce_odr noundef nonnull align 4 dereferenceable(8) ptr @_ZNSt14__array_traitsIN4absl7debian28optionalIiEELm52EE6_S_refERA52_KS3_m(ptr noundef nonnull align 4 dereferenceable(416) %0, i64 noundef %1) #5 comdat align 2 {
  %3 = alloca ptr, align 8
  %4 = alloca i64, align 8
  store ptr %0, ptr %3, align 8
  store i64 %1, ptr %4, align 8
  %5 = load ptr, ptr %3, align 8
  %6 = load i64, ptr %4, align 8
  %7 = getelementptr inbounds [52 x %"class.absl::debian2::optional"], ptr %5, i64 0, i64 %6
  ret ptr %7
}

; Function Attrs: mustprogress uwtable
define linkonce_odr noundef nonnull align 4 dereferenceable(8) ptr @_ZN4absl7debian28optionalIiEaSImvEERS2_OT_(ptr noundef nonnull align 4 dereferenceable(8) %0, ptr noundef nonnull align 8 dereferenceable(8) %1) #4 comdat align 2 {
  %3 = alloca ptr, align 8
  %4 = alloca ptr, align 8
  store ptr %0, ptr %3, align 8
  store ptr %1, ptr %4, align 8
  %5 = load ptr, ptr %3, align 8
  %6 = load ptr, ptr %4, align 8
  call void @_ZN4absl7debian217optional_internal18optional_data_baseIiE6assignImEEvOT_(ptr noundef nonnull align 4 dereferenceable(8) %5, ptr noundef nonnull align 8 dereferenceable(8) %6)
  ret ptr %5
}

; Function Attrs: mustprogress nounwind uwtable
define linkonce_odr noundef nonnull align 4 dereferenceable(8) ptr @_ZNSt5arrayIN4absl7debian28optionalIiEELm52EEixEm(ptr noundef nonnull align 4 dereferenceable(416) %0, i64 noundef %1) #5 comdat align 2 {
  %3 = alloca ptr, align 8
  %4 = alloca i64, align 8
  store ptr %0, ptr %3, align 8
  store i64 %1, ptr %4, align 8
  %5 = load ptr, ptr %3, align 8
  %6 = getelementptr inbounds nuw %"struct.std::array.16", ptr %5, i32 0, i32 0
  %7 = load i64, ptr %4, align 8
  %8 = call noundef nonnull align 4 dereferenceable(8) ptr @_ZNSt14__array_traitsIN4absl7debian28optionalIiEELm52EE6_S_refERA52_KS3_m(ptr noundef nonnull align 4 dereferenceable(416) %6, i64 noundef %7) #3
  ret ptr %8
}

; Function Attrs: mustprogress nounwind uwtable
define linkonce_odr noundef i64 @_ZNKSt6vectorIN10open_spiel5State12PlayerActionESaIS2_EE4sizeEv(ptr noundef nonnull align 8 dereferenceable(24) %0) #5 comdat align 2 {
  %2 = alloca ptr, align 8
  store ptr %0, ptr %2, align 8
  %3 = load ptr, ptr %2, align 8
  %4 = getelementptr inbounds nuw %"struct.std::_Vector_base", ptr %3, i32 0, i32 0
  %5 = getelementptr inbounds nuw %"struct.std::_Vector_base<open_spiel::State::PlayerAction, std::allocator<open_spiel::State::PlayerAction>>::_Vector_impl_data", ptr %4, i32 0, i32 1
  %6 = load ptr, ptr %5, align 8
  %7 = getelementptr inbounds nuw %"struct.std::_Vector_base", ptr %3, i32 0, i32 0
  %8 = getelementptr inbounds nuw %"struct.std::_Vector_base<open_spiel::State::PlayerAction, std::allocator<open_spiel::State::PlayerAction>>::_Vector_impl_data", ptr %7, i32 0, i32 0
  %9 = load ptr, ptr %8, align 8
  %10 = ptrtoint ptr %6 to i64
  %11 = ptrtoint ptr %9 to i64
  %12 = sub i64 %10, %11
  %13 = sdiv exact i64 %12, 16
  ret i64 %13
}

; Function Attrs: mustprogress uwtable
define void @_ZN10open_spiel6spades11SpadesState15ApplyDealActionEi(ptr noundef nonnull align 8 dereferenceable(897) %0, i32 noundef %1) #4 align 2 {
  %3 = alloca ptr, align 8
  %4 = alloca i32, align 4
  %5 = alloca i64, align 8
  store ptr %0, ptr %3, align 8
  store i32 %1, ptr %4, align 4
  %6 = load ptr, ptr %3, align 8
  %7 = getelementptr inbounds nuw %"class.open_spiel::State", ptr %6, i32 0, i32 4
  %8 = call noundef i64 @_ZNKSt6vectorIN10open_spiel5State12PlayerActionESaIS2_EE4sizeEv(ptr noundef nonnull align 8 dereferenceable(24) %7) #3
  %9 = urem i64 %8, 4
  store i64 %9, ptr %5, align 8
  %10 = getelementptr inbounds nuw %"class.open_spiel::spades::SpadesState", ptr %6, i32 0, i32 18
  %11 = load i32, ptr %4, align 4
  %12 = sext i32 %11 to i64
  %13 = call noundef nonnull align 4 dereferenceable(8) ptr @_ZNSt5arrayIN4absl7debian28optionalIiEELm52EEixEm(ptr noundef nonnull align 4 dereferenceable(416) %10, i64 noundef %12) #3
  %14 = call noundef nonnull align 4 dereferenceable(8) ptr @_ZN4absl7debian28optionalIiEaSImvEERS2_OT_(ptr noundef nonnull align 4 dereferenceable(8) %13, ptr noundef nonnull align 8 dereferenceable(8) %5)
  %15 = getelementptr inbounds nuw %"class.open_spiel::State", ptr %6, i32 0, i32 4
  %16 = call noundef i64 @_ZNKSt6vectorIN10open_spiel5State12PlayerActionESaIS2_EE4sizeEv(ptr noundef nonnull align 8 dereferenceable(24) %15) #3
  %17 = icmp eq i64 %16, 51
  br i1 %17, label %18, label %21

18:                                               ; preds = %2
  %19 = getelementptr inbounds nuw %"class.open_spiel::spades::SpadesState", ptr %6, i32 0, i32 13
  store i32 1, ptr %19, align 4
  %20 = getelementptr inbounds nuw %"class.open_spiel::spades::SpadesState", ptr %6, i32 0, i32 12
  store i32 0, ptr %20, align 8
  br label %21

21:                                               ; preds = %18, %2
  ret void
}

; Function Attrs: mustprogress uwtable
define void @_ZN10open_spiel6spades11SpadesState13DoApplyActionEl(ptr noundef nonnull align 8 dereferenceable(897) %0, i64 noundef %1) unnamed_addr #4 align 2 personality ptr @__gxx_personality_v0 {
  %3 = alloca ptr, align 8
  %4 = alloca i64, align 8
  %5 = alloca %"class.std::__cxx11::basic_string", align 8
  %6 = alloca %"class.std::allocator", align 1
  %7 = alloca ptr, align 8
  %8 = alloca i32, align 4
  store ptr %0, ptr %3, align 8
  store i64 %1, ptr %4, align 8
  %9 = load ptr, ptr %3, align 8
  %10 = getelementptr inbounds nuw %"class.open_spiel::spades::SpadesState", ptr %9, i32 0, i32 13
  %11 = load i32, ptr %10, align 4
  switch i32 %11, label %34 [
    i32 0, label %12
    i32 1, label %15
    i32 2, label %19
    i32 3, label %22
  ]

12:                                               ; preds = %2
  %13 = load i64, ptr %4, align 8
  %14 = trunc i64 %13 to i32
  call void @_ZN10open_spiel6spades11SpadesState15ApplyDealActionEi(ptr noundef nonnull align 8 dereferenceable(897) %9, i32 noundef %14)
  br label %34

15:                                               ; preds = %2
  %16 = load i64, ptr %4, align 8
  %17 = sub nsw i64 %16, 52
  %18 = trunc i64 %17 to i32
  call void @_ZN10open_spiel6spades11SpadesState18ApplyBiddingActionEi(ptr noundef nonnull align 8 dereferenceable(897) %9, i32 noundef %18)
  br label %34

19:                                               ; preds = %2
  %20 = load i64, ptr %4, align 8
  %21 = trunc i64 %20 to i32
  call void @_ZN10open_spiel6spades11SpadesState15ApplyPlayActionEi(ptr noundef nonnull align 8 dereferenceable(897) %9, i32 noundef %21)
  br label %34

22:                                               ; preds = %2
  call void @_ZNSaIcEC1Ev(ptr noundef nonnull align 1 dereferenceable(1) %6) #3
  invoke void @_ZNSt7__cxx1112basic_stringIcSt11char_traitsIcESaIcEEC2IS3_EEPKcRKS3_(ptr noundef nonnull align 8 dereferenceable(32) %5, ptr noundef @.str.51, ptr noundef nonnull align 1 dereferenceable(1) %6)
          to label %23 unwind label %25

23:                                               ; preds = %22
  invoke void @_ZN10open_spiel15SpielFatalErrorERKNSt7__cxx1112basic_stringIcSt11char_traitsIcESaIcEEE(ptr noundef nonnull align 8 dereferenceable(32) %5) #15
          to label %24 unwind label %29

24:                                               ; preds = %23
  unreachable

25:                                               ; preds = %22
  %26 = landingpad { ptr, i32 }
          cleanup
  %27 = extractvalue { ptr, i32 } %26, 0
  store ptr %27, ptr %7, align 8
  %28 = extractvalue { ptr, i32 } %26, 1
  store i32 %28, ptr %8, align 4
  br label %33

29:                                               ; preds = %23
  %30 = landingpad { ptr, i32 }
          cleanup
  %31 = extractvalue { ptr, i32 } %30, 0
  store ptr %31, ptr %7, align 8
  %32 = extractvalue { ptr, i32 } %30, 1
  store i32 %32, ptr %8, align 4
  call void @_ZNSt7__cxx1112basic_stringIcSt11char_traitsIcESaIcEED1Ev(ptr noundef nonnull align 8 dereferenceable(32) %5) #3
  br label %33

33:                                               ; preds = %29, %25
  call void @_ZNSaIcED1Ev(ptr noundef nonnull align 1 dereferenceable(1) %6) #3
  br label %35

34:                                               ; preds = %19, %15, %12, %2
  ret void

35:                                               ; preds = %33
  %36 = load ptr, ptr %7, align 8
  %37 = load i32, ptr %8, align 4
  %38 = insertvalue { ptr, i32 } poison, ptr %36, 0
  %39 = insertvalue { ptr, i32 } %38, i32 %37, 1
  resume { ptr, i32 } %39
}