; Function Attrs: mustprogress uwtable
define void @_ZN10open_spiel6spades11SpadesState13DoApplyActionEl(ptr noundef nonnull align 8 dereferenceable(897) %0, i64 noundef %1) unnamed_addr #3 align 2 personality ptr @__gxx_personality_v0 {
  %3 = alloca %"class.std::__cxx11::basic_string", align 8
  %4 = alloca %"class.std::allocator", align 1
  %5 = getelementptr inbounds nuw i8, ptr %0, i64 116
  %6 = load i32, ptr %5, align 4
  switch i32 %6, label %_ZN10open_spiel6spades11SpadesState15ApplyDealActionEi.exit [
    i32 0, label %7
    i32 1, label %32
    i32 2, label %35
    i32 3, label %37
  ]

7:                                                ; preds = %2
  %8 = getelementptr inbounds nuw i8, ptr %0, i64 32
  %9 = getelementptr inbounds i8, ptr %0, i64 40
  %10 = load ptr, ptr %9, align 8
  %11 = load ptr, ptr %8, align 8
  %12 = ptrtoint ptr %10 to i64
  %13 = ptrtoint ptr %11 to i64
  %14 = sub i64 %12, %13
  %15 = getelementptr inbounds nuw i8, ptr %0, i64 424
  %sext = shl i64 %1, 32
  %16 = ashr exact i64 %sext, 32
  %17 = getelementptr inbounds [52 x %"class.absl::debian2::optional"], ptr %15, i64 0, i64 %16
  %18 = load i8, ptr %17, align 8
  %19 = trunc i8 %18 to i1
  br i1 %19, label %_ZN4absl7debian28optionalIiEaSImvEERS2_OT_.exit.i, label %20

20:                                               ; preds = %7
  store i8 1, ptr %17, align 8
  br label %_ZN4absl7debian28optionalIiEaSImvEERS2_OT_.exit.i

_ZN4absl7debian28optionalIiEaSImvEERS2_OT_.exit.i: ; preds = %20, %7
  %21 = trunc i64 %14 to i32
  %22 = lshr i32 %21, 4
  %.sink.i.i.i = and i32 %22, 3
  %23 = getelementptr inbounds nuw i8, ptr %17, i64 4
  store i32 %.sink.i.i.i, ptr %23, align 4
  %24 = load ptr, ptr %9, align 8
  %25 = load ptr, ptr %8, align 8
  %26 = ptrtoint ptr %24 to i64
  %27 = ptrtoint ptr %25 to i64
  %28 = sub i64 %26, %27
  %29 = icmp eq i64 %28, 816
  br i1 %29, label %30, label %_ZN10open_spiel6spades11SpadesState15ApplyDealActionEi.exit

30:                                               ; preds = %_ZN4absl7debian28optionalIiEaSImvEERS2_OT_.exit.i
  store i32 1, ptr %5, align 4
  %31 = getelementptr inbounds nuw i8, ptr %0, i64 112
  store i32 0, ptr %31, align 8
  br label %_ZN10open_spiel6spades11SpadesState15ApplyDealActionEi.exit

32:                                               ; preds = %2
  %33 = trunc i64 %1 to i32
  %34 = add i32 %33, -52
  tail call void @_ZN10open_spiel6spades11SpadesState18ApplyBiddingActionEi(ptr noundef nonnull align 8 dereferenceable(897) %0, i32 noundef %34)
  br label %_ZN10open_spiel6spades11SpadesState15ApplyDealActionEi.exit

35:                                               ; preds = %2
  %36 = trunc i64 %1 to i32
  tail call void @_ZN10open_spiel6spades11SpadesState15ApplyPlayActionEi(ptr noundef nonnull align 8 dereferenceable(897) %0, i32 noundef %36)
  br label %_ZN10open_spiel6spades11SpadesState15ApplyDealActionEi.exit

37:                                               ; preds = %2
  call void @_ZNSaIcEC1Ev(ptr noundef nonnull align 1 dereferenceable(1) %4) #25
  invoke void @_ZNSt7__cxx1112basic_stringIcSt11char_traitsIcESaIcEEC2IS3_EEPKcRKS3_(ptr noundef nonnull align 8 dereferenceable(32) %3, ptr noundef nonnull @.str.51, ptr noundef nonnull align 1 dereferenceable(1) %4)
          to label %38 unwind label %40

38:                                               ; preds = %37
  invoke void @_ZN10open_spiel15SpielFatalErrorERKNSt7__cxx1112basic_stringIcSt11char_traitsIcESaIcEEE(ptr noundef nonnull align 8 dereferenceable(32) %3) #24
          to label %39 unwind label %42

39:                                               ; preds = %38
  unreachable

40:                                               ; preds = %37
  %41 = landingpad { ptr, i32 }
          cleanup
  br label %44

42:                                               ; preds = %38
  %43 = landingpad { ptr, i32 }
          cleanup
  call void @_ZNSt7__cxx1112basic_stringIcSt11char_traitsIcESaIcEED1Ev(ptr noundef nonnull align 8 dereferenceable(32) %3) #25
  br label %44

44:                                               ; preds = %42, %40
  %.pn = phi { ptr, i32 } [ %43, %42 ], [ %41, %40 ]
  call void @_ZNSaIcED1Ev(ptr noundef nonnull align 1 dereferenceable(1) %4) #25
  resume { ptr, i32 } %.pn

_ZN10open_spiel6spades11SpadesState15ApplyDealActionEi.exit: ; preds = %30, %_ZN4absl7debian28optionalIiEaSImvEERS2_OT_.exit.i, %35, %32, %2
  ret void
}